CCS PCH C Compiler, Version 4.120, 5967               12-jun-13 17:52

               Filename: C:\Users\Jannier\Documents\G-PIC\Programas\LCD\LCDHolamundo.lst

               ROM used: 554 bytes (2%)
                         Largest free fragment is 24018
               RAM used: 5 (0%) at main() level
                         17 (1%) worst case
               Stack:    6 locations

*
2000:  GOTO   21F6
.................... //////////////////////////////////////////////////////////////////////////////// 
.................... /// PROGRAMA PARA VISUALIZAR DATOS EN LA LCD USANDO LA LIBREIRA   lcd.h      /// 
.................... ///     LCD_ENABLE_PIN   PIN_B0                                              /// 
.................... ///     LCD_RS_PIN       PIN_B1                                              /// 
.................... ///     LCD_RW_PIN       PIN_B2     //CONEXION PANTALLA PUERTO B             /// 
.................... ///     LCD_DATA4        PIN_B4                                              /// 
.................... ///     LCD_DATA5        PIN_B5                                              /// 
.................... ///     LCD_DATA6        PIN_B6                                              /// 
.................... ///     LCD_DATA7        PIN_B7                                              /// 
.................... //////////////////////////////////////////////////////////////////////////////// 
.................... #include <18F4550.h> 
.................... //////// Standard Header file for the PIC18F4550 device //////////////// 
.................... #device PIC18F4550 
.................... #list 
....................  
.................... //#device adc = 10  
.................... #fuses HSPLL,NOWDT,NOPROTECT,NOLVP,NODEBUG,USBDIV,PLL5,CPUDIV1,VREGEN,NOPBADEN 
.................... #use delay(clock=48000000)  //#use delay(clock=20000000) 
*
2028:  CLRF   FEA
202A:  MOVLW  08
202C:  MOVWF  FE9
202E:  MOVF   FEF,W
2030:  BZ    204E
2032:  MOVLW  0F
2034:  MOVWF  01
2036:  CLRF   00
2038:  DECFSZ 00,F
203A:  BRA    2038
203C:  DECFSZ 01,F
203E:  BRA    2036
2040:  MOVLW  8F
2042:  MOVWF  00
2044:  DECFSZ 00,F
2046:  BRA    2044
2048:  NOP   
204A:  DECFSZ FEF,F
204C:  BRA    2032
204E:  RETURN 0
.................... #include <usb_bootloader.h> //Comenta esta línea si no usas Bootloader 
.................... /////////////////////////////////////////////////////////////////////////// 
.................... ////                                                                   //// 
.................... ////                     USB_BOOTLOADER.H                              //// 
.................... ////                                                                   //// 
.................... ////  This include file must be included by any application loaded     //// 
.................... ////  by the example USB bootloader (ex_usb_bootloader                 //// 
.................... ////                                                                   //// 
.................... ////  The directives in this file relocate the reset and interrupt     //// 
.................... ////  vectors as well as reserving space for the bootloader.           //// 
.................... ////                                                                   //// 
.................... ////  For more documentation see ex_usb_bootloader.c                   //// 
.................... ////                                                                   //// 
.................... /////////////////////////////////////////////////////////////////////////// 
.................... ////                                                                   //// 
.................... //// VERSION HISTORY                                                   //// 
.................... ////                                                                   //// 
.................... //// March 5th, 2009:                                                  //// 
.................... ////   Cleanup for Wizard.                                             //// 
.................... ////   PIC24 Initial release.                                          //// 
.................... ////                                                                   //// 
.................... /////////////////////////////////////////////////////////////////////////// 
.................... ////        (C) Copyright 1996,2009 Custom Computer Services           //// 
.................... //// This source code may only be used by licensed users of the CCS    //// 
.................... //// C compiler.  This source code may only be distributed to other    //// 
.................... //// licensed users of the CCS C compiler.  No other use,              //// 
.................... //// reproduction or distribution is permitted without written         //// 
.................... //// permission.  Derivative programs created using this software      //// 
.................... //// in object code form are not restricted in any way.                //// 
.................... /////////////////////////////////////////////////////////////////////////// 
....................  
.................... //how big is the bootloader? 
.................... //the bootloader will reside from address 0x0000 to this location.  the 
.................... //application will then sit at this location+1 to the end of program memory. 
.................... //#if defined(__DEBUG) 
.................... #define LOADER_SIZE        (0x1FFF) 
.................... //#else 
.................... //#define LOADER_SIZE        (0x17FF) 
.................... //#endif 
....................  
.................... //the loader and application need a common flag that determines if we are in 
.................... //the bootloader or application, that way the ISR knows where to go.  this 
.................... //is the location in ram that is reserved for this flag. 
.................... #define LOC_IN_LOADER_FLAG  0x25 
....................  
.................... //// --- end configuration --- //////////////////////////////////////////// 
....................  
.................... #reserve LOC_IN_LOADER_FLAG 
....................  
.................... int8 g_InBootloader; 
.................... #locate g_InBootloader=LOC_IN_LOADER_FLAG 
....................  
.................... #define LOADER_START       (0) 
.................... #define LOADER_END         (LOADER_SIZE) 
.................... #define APPLICATION_START  (LOADER_SIZE+1) 
.................... #if defined(__USB_87J50__) 
....................  #define APPLICATION_END    (getenv("PROGRAM_MEMORY")-9) //configuration bits 
.................... #else 
....................  #define APPLICATION_END    (getenv("PROGRAM_MEMORY")-1) 
.................... #endif  
.................... #define APPLICATION_ISR    (APPLICATION_START+8) 
....................  
.................... #ifdef _bootloader 
....................  /* 
....................   Provide an empty application, so if you load this .HEX file into the pic 
....................   without an application this will prevent the pic from executing unknown code. 
....................  */ 
....................  #org APPLICATION_START,APPLICATION_START+0xF 
....................  void BlankApplication(void)  
....................  { 
....................    while(TRUE); 
....................  } 
....................  
....................  //we need to prevent the loader from using application space 
....................  #if (APPLICATION_END > 0x10000) 
....................    #org APPLICATION_START+0x10, 0xFFFF {} 
....................    #if (APPLICATION_END > 0x20000) 
....................       #org 0x10000, 0x1FFFF {} 
....................       #org 0x20000, APPLICATION_END {} 
....................    #else 
....................       #org 0x10000, APPLICATION_END {} 
....................    #endif 
....................  #else 
....................    #org APPLICATION_START+0x10, APPLICATION_END {} 
....................  #endif 
....................  
....................    #define  USB_CONFIG_PID       0x0034 
....................  
....................    #define USB_STRINGS_OVERWRITTEN 
....................    char USB_STRING_DESC_OFFSET[]={0,4,12}; 
....................  
....................    // Here is where the "CCS" Manufacturer string and "SERIAL DEMO" are stored. 
....................    // Strings are saved as unicode. 
....................    // These strings are mostly only displayed during the add hardware wizard. 
....................    // Once the operating system drivers have been installed it will usually display 
....................    // the name from the drivers .INF. 
....................    char const USB_STRING_DESC[]={ 
....................       //string 0 
....................             4, //length of string index 
....................             0x03, //USB_DESC_STRING_TYPE, //descriptor type 0x03 (STRING) 
....................             0x09,0x04,   //Microsoft Defined for US-English 
....................       //string 1  - manufacturer 
....................             8, //length of string index 
....................             0x03, //USB_DESC_STRING_TYPE, //descriptor type 0x03 (STRING) 
....................             'C',0, 
....................             'C',0, 
....................             'S',0, 
....................       //string 2 - product 
....................             30, //length of string index 
....................             0x03, //USB_DESC_STRING_TYPE, //descriptor type 0x03 (STRING) 
....................             'C',0, 
....................             'D',0, 
....................             'C',0, 
....................             ' ',0, 
....................             'B',0, 
....................             'o',0, 
....................             'o',0, 
....................             't',0, 
....................             'l',0, 
....................             'o',0, 
....................             'a',0, 
....................             'd',0, 
....................             'e',0, 
....................             'r',0 
....................    }; 
.................... #endif   //_bootloader 
....................  
.................... #ifndef _bootloader 
....................  //in the application, this moves the reset and isr vector out of the bootload 
....................  //space.  it then reserves the loader space from being used by the application. 
....................  #build(reset=APPLICATION_START, interrupt=APPLICATION_ISR) 
....................  #org 0, LOADER_END {} 
.................... #endif 
....................  
.................... #include <lcd.c>  
.................... /////////////////////////////////////////////////////////////////////////////// 
.................... ////                             LCD.C                                     //// 
.................... ////                 Driver for common LCD modules                         //// 
.................... ////                                                                       //// 
.................... ////  lcd_init()   Must be called before any other function.               //// 
.................... ////                                                                       //// 
.................... ////  lcd_putc(c)  Will display c on the next position of the LCD.         //// 
.................... ////                 \a  Set cursor position to upper left                 //// 
.................... ////                 \f  Clear display, set cursor to upper left           //// 
.................... ////                 \n  Go to start of second line                        //// 
.................... ////                 \b  Move back one position                            //// 
.................... ////              If LCD_EXTENDED_NEWLINE is defined, the \n character     //// 
.................... ////              will erase all remanining characters on the current      //// 
.................... ////              line, and move the cursor to the beginning of the next   //// 
.................... ////              line.                                                    //// 
.................... ////              If LCD_EXTENDED_NEWLINE is defined, the \r character     //// 
.................... ////              will move the cursor to the start of the current         //// 
.................... ////              line.                                                    //// 
.................... ////                                                                       //// 
.................... ////  lcd_gotoxy(x,y) Set write position on LCD (upper left is 1,1)        //// 
.................... ////                                                                       //// 
.................... ////  lcd_getc(x,y)   Returns character at position x,y on LCD             //// 
.................... ////                                                                       //// 
.................... ////  CONFIGURATION                                                        //// 
.................... ////  The LCD can be configured in one of two ways: a.) port access or     //// 
.................... ////  b.) pin access.  Port access requires the entire 7 bit interface     //// 
.................... ////  connected to one GPIO port, and the data bits (D4:D7 of the LCD)     //// 
.................... ////  connected to sequential pins on the GPIO.  Pin access                //// 
.................... ////  has no requirements, all 7 bits of the control interface can         //// 
.................... ////  can be connected to any GPIO using several ports.                    //// 
.................... ////                                                                       //// 
.................... ////  To use port access, #define LCD_DATA_PORT to the SFR location of     //// 
.................... ////  of the GPIO port that holds the interface, -AND- edit LCD_PIN_MAP    //// 
.................... ////  of this file to configure the pin order.  If you are using a         //// 
.................... ////  baseline PIC (PCB), then LCD_OUTPUT_MAP and LCD_INPUT_MAP also must  //// 
.................... ////  be defined.                                                          //// 
.................... ////                                                                       //// 
.................... ////  Example of port access:                                              //// 
.................... ////     #define LCD_DATA_PORT getenv("SFR:PORTD")                         //// 
.................... ////                                                                       //// 
.................... ////  To use pin access, the following pins must be defined:               //// 
.................... ////     LCD_ENABLE_PIN                                                    //// 
.................... ////     LCD_RS_PIN                                                        //// 
.................... ////     LCD_RW_PIN                                                        //// 
.................... ////     LCD_DATA4                                                         //// 
.................... ////     LCD_DATA5                                                         //// 
.................... ////     LCD_DATA6                                                         //// 
.................... ////     LCD_DATA7                                                         //// 
.................... ////                                                                       //// 
.................... ////  Example of pin access:                                               //// 
.................... ////     #define LCD_ENABLE_PIN  PIN_E0                                    //// 
.................... ////     #define LCD_RS_PIN      PIN_E1                                    //// 
.................... ////     #define LCD_RW_PIN      PIN_E2                                    //// 
.................... ////     #define LCD_DATA4       PIN_D4                                    //// 
.................... ////     #define LCD_DATA5       PIN_D5                                    //// 
.................... ////     #define LCD_DATA6       PIN_D6                                    //// 
.................... ////     #define LCD_DATA7       PIN_D7                                    //// 
.................... ////                                                                       //// 
.................... /////////////////////////////////////////////////////////////////////////////// 
.................... ////        (C) Copyright 1996,2010 Custom Computer Services           //// 
.................... //// This source code may only be used by licensed users of the CCS C  //// 
.................... //// compiler.  This source code may only be distributed to other      //// 
.................... //// licensed users of the CCS C compiler.  No other use, reproduction //// 
.................... //// or distribution is permitted without written permission.          //// 
.................... //// Derivative programs created using this software in object code    //// 
.................... //// form are not restricted in any way.                               //// 
.................... /////////////////////////////////////////////////////////////////////////// 
....................  
.................... // define the pinout. 
.................... // only required if port access is being used. 
.................... typedef struct   
.................... {                            // This structure is overlayed 
....................    BOOLEAN enable;           // on to an I/O port to gain 
....................    BOOLEAN rs;               // access to the LCD pins. 
....................    BOOLEAN rw;               // The bits are allocated from 
....................    BOOLEAN unused;           // low order up.  ENABLE will 
....................    int     data : 4;         // be LSB pin of that port. 
....................   #if defined(__PCD__)       // The port used will be LCD_DATA_PORT. 
....................    int    reserved: 8; 
....................   #endif 
.................... } LCD_PIN_MAP; 
....................  
.................... // this is to improve compatability with previous LCD drivers that accepted 
.................... // a define labeled 'use_portb_lcd' that configured the LCD onto port B. 
.................... #if ((defined(use_portb_lcd)) && (use_portb_lcd==TRUE)) 
....................  #define LCD_DATA_PORT getenv("SFR:PORTB") 
.................... #endif 
....................  
.................... #if defined(__PCB__) 
....................    // these definitions only need to be modified for baseline PICs. 
....................    // all other PICs use LCD_PIN_MAP or individual LCD_xxx pin definitions. 
.................... /*                                    EN, RS,   RW,   UNUSED,  DATA  */ 
....................  const LCD_PIN_MAP LCD_OUTPUT_MAP =  {0,  0,    0,    0,       0}; 
....................  const LCD_PIN_MAP LCD_INPUT_MAP =   {0,  0,    0,    0,       0xF}; 
.................... #endif 
....................  
.................... ////////////////////// END CONFIGURATION /////////////////////////////////// 
....................  
.................... #ifndef LCD_ENABLE_PIN 
....................    #define lcd_output_enable(x) lcdlat.enable=x 
....................    #define lcd_enable_tris()   lcdtris.enable=0 
.................... #else 
....................    #define lcd_output_enable(x) output_bit(LCD_ENABLE_PIN, x) 
....................    #define lcd_enable_tris()  output_drive(LCD_ENABLE_PIN) 
.................... #endif 
....................  
.................... #ifndef LCD_RS_PIN 
....................    #define lcd_output_rs(x) lcdlat.rs=x 
....................    #define lcd_rs_tris()   lcdtris.rs=0 
.................... #else 
....................    #define lcd_output_rs(x) output_bit(LCD_RS_PIN, x) 
....................    #define lcd_rs_tris()  output_drive(LCD_RS_PIN) 
.................... #endif 
....................  
.................... #ifndef LCD_RW_PIN 
....................    #define lcd_output_rw(x) lcdlat.rw=x 
....................    #define lcd_rw_tris()   lcdtris.rw=0 
.................... #else 
....................    #define lcd_output_rw(x) output_bit(LCD_RW_PIN, x) 
....................    #define lcd_rw_tris()  output_drive(LCD_RW_PIN) 
.................... #endif 
....................  
.................... // original version of this library incorrectly labeled LCD_DATA0 as LCD_DATA4, 
.................... // LCD_DATA1 as LCD_DATA5, and so on.  this block of code makes the driver 
.................... // compatible with any code written for the original library 
.................... #if (defined(LCD_DATA0) && defined(LCD_DATA1) && defined(LCD_DATA2) && defined(LCD_DATA3) && !defined(LCD_DATA4) && !defined(LCD_DATA5) && !defined(LCD_DATA6) && !defined(LCD_DATA7)) 
....................    #define  LCD_DATA4    LCD_DATA0 
....................    #define  LCD_DATA5    LCD_DATA1 
....................    #define  LCD_DATA6    LCD_DATA2 
....................    #define  LCD_DATA7    LCD_DATA3 
.................... #endif 
....................  
.................... #ifndef LCD_DATA4 
.................... #ifndef LCD_DATA_PORT 
....................    #if defined(__PCB__) 
....................       #define LCD_DATA_PORT      0x06     //portb 
....................       #define set_tris_lcd(x)   set_tris_b(x) 
....................    #else 
....................      #if defined(PIN_D0) 
....................       #define LCD_DATA_PORT      getenv("SFR:PORTD")     //portd 
....................      #else 
....................       #define LCD_DATA_PORT      getenv("SFR:PORTB")     //portb 
....................      #endif 
....................    #endif    
.................... #endif 
....................  
.................... #if defined(__PCB__) 
....................    LCD_PIN_MAP lcd, lcdlat; 
....................    #byte lcd = LCD_DATA_PORT 
....................    #byte lcdlat = LCD_DATA_PORT 
.................... #elif defined(__PCM__) 
....................    LCD_PIN_MAP lcd, lcdlat, lcdtris; 
....................    #byte lcd = LCD_DATA_PORT 
....................    #byte lcdlat = LCD_DATA_PORT 
....................    #byte lcdtris = LCD_DATA_PORT+0x80 
.................... #elif defined(__PCH__) 
....................    LCD_PIN_MAP lcd, lcdlat, lcdtris; 
....................    #byte lcd = LCD_DATA_PORT 
....................    #byte lcdlat = LCD_DATA_PORT+9 
....................    #byte lcdtris = LCD_DATA_PORT+0x12 
.................... #elif defined(__PCD__) 
....................    LCD_PIN_MAP lcd, lcdlat, lcdtris; 
....................    #word lcd = LCD_DATA_PORT 
....................    #word lcdlat = LCD_DATA_PORT+2 
....................    #word lcdtris = LCD_DATA_PORT-0x02 
.................... #endif 
.................... #endif   //LCD_DATA4 not defined 
....................  
.................... #ifndef LCD_TYPE 
....................    #define LCD_TYPE 2           // 0=5x7, 1=5x10, 2=2 lines 
.................... #endif 
....................  
.................... #ifndef LCD_LINE_TWO 
....................    #define LCD_LINE_TWO 0x40    // LCD RAM address for the second line 
.................... #endif 
....................  
.................... #ifndef LCD_LINE_LENGTH 
....................    #define LCD_LINE_LENGTH 20 
.................... #endif 
....................  
.................... BYTE const LCD_INIT_STRING[4] = {0x20 | (LCD_TYPE << 2), 0xc, 1, 6}; 
....................                              // These bytes need to be sent to the LCD 
....................                              // to start it up. 
....................  
.................... BYTE lcd_read_nibble(void); 
....................  
.................... BYTE lcd_read_byte(void) 
.................... { 
....................    BYTE low,high; 
....................  
....................  #if defined(__PCB__) 
....................    set_tris_lcd(LCD_INPUT_MAP); 
....................  #else 
....................   #if (defined(LCD_DATA4) && defined(LCD_DATA5) && defined(LCD_DATA6) && defined(LCD_DATA7)) 
....................    output_float(LCD_DATA4); 
....................    output_float(LCD_DATA5); 
....................    output_float(LCD_DATA6); 
....................    output_float(LCD_DATA7); 
....................   #else 
....................    lcdtris.data = 0xF; 
*
207C:  MOVLW  0F
207E:  ANDWF  F95,W
2080:  IORLW  F0
2082:  MOVWF  F95
....................   #endif 
....................  #endif 
....................          
....................    lcd_output_rw(1); 
2084:  BSF    F8C.2
....................    delay_cycles(1); 
2086:  NOP   
....................    lcd_output_enable(1); 
2088:  BSF    F8C.0
....................    delay_cycles(1); 
208A:  NOP   
....................    high = lcd_read_nibble(); 
208C:  RCALL  2070
208E:  MOVFF  01,0F
....................        
....................    lcd_output_enable(0); 
2092:  BCF    F8C.0
....................    delay_cycles(1); 
2094:  NOP   
....................    lcd_output_enable(1); 
2096:  BSF    F8C.0
....................    delay_us(1); 
2098:  MOVLW  03
209A:  MOVWF  00
209C:  DECFSZ 00,F
209E:  BRA    209C
20A0:  BRA    20A2
....................    low = lcd_read_nibble(); 
20A2:  RCALL  2070
20A4:  MOVFF  01,0E
....................        
....................    lcd_output_enable(0); 
20A8:  BCF    F8C.0
....................  
....................  #if defined(__PCB__) 
....................    set_tris_lcd(LCD_OUTPUT_MAP); 
....................  #else 
....................   #if (defined(LCD_DATA4) && defined(LCD_DATA5) && defined(LCD_DATA6) && defined(LCD_DATA7)) 
....................    output_drive(LCD_DATA4); 
....................    output_drive(LCD_DATA5); 
....................    output_drive(LCD_DATA6); 
....................    output_drive(LCD_DATA7); 
....................   #else 
....................    lcdtris.data = 0x0; 
20AA:  MOVLW  0F
20AC:  ANDWF  F95,W
20AE:  MOVWF  F95
....................   #endif 
....................  #endif 
....................  
....................    return( (high<<4) | low); 
20B0:  SWAPF  0F,W
20B2:  MOVWF  00
20B4:  MOVLW  F0
20B6:  ANDWF  00,F
20B8:  MOVF   00,W
20BA:  IORWF  0E,W
20BC:  MOVWF  01
.................... } 
20BE:  GOTO   20CC (RETURN)
....................  
.................... BYTE lcd_read_nibble(void) 
.................... { 
....................   #if (defined(LCD_DATA4) && defined(LCD_DATA5) && defined(LCD_DATA6) && defined(LCD_DATA7)) 
....................    BYTE n = 0x00; 
....................  
....................    /* Read the data port */ 
....................    n |= input(LCD_DATA4); 
....................    n |= input(LCD_DATA5) << 1; 
....................    n |= input(LCD_DATA6) << 2; 
....................    n |= input(LCD_DATA7) << 3; 
....................     
....................    return(n); 
....................   #else 
....................    return(lcd.data); 
*
2070:  MOVF   F83,W
2072:  MOVWF  00
2074:  SWAPF  00,W
2076:  ANDLW  0F
2078:  MOVWF  01
....................   #endif 
.................... } 
207A:  RETURN 0
....................  
.................... void lcd_send_nibble(BYTE n) 
.................... { 
....................   #if (defined(LCD_DATA4) && defined(LCD_DATA5) && defined(LCD_DATA6) && defined(LCD_DATA7)) 
....................    /* Write to the data port */ 
....................    output_bit(LCD_DATA4, bit_test(n, 0)); 
....................    output_bit(LCD_DATA5, bit_test(n, 1)); 
....................    output_bit(LCD_DATA6, bit_test(n, 2)); 
....................    output_bit(LCD_DATA7, bit_test(n, 3)); 
....................   #else       
....................    lcdlat.data = n; 
*
2050:  SWAPF  0F,W
2052:  ANDLW  F0
2054:  MOVWF  00
2056:  MOVLW  0F
2058:  ANDWF  F8C,W
205A:  IORWF  00,W
205C:  MOVWF  F8C
....................   #endif 
....................        
....................    delay_cycles(1); 
205E:  NOP   
....................    lcd_output_enable(1); 
2060:  BSF    F8C.0
....................    delay_us(2); 
2062:  MOVLW  07
2064:  MOVWF  00
2066:  DECFSZ 00,F
2068:  BRA    2066
206A:  BRA    206C
....................    lcd_output_enable(0); 
206C:  BCF    F8C.0
.................... } 
206E:  RETURN 0
....................  
.................... void lcd_send_byte(BYTE address, BYTE n) 
.................... { 
....................   #if defined(__PCB__) 
....................    set_tris_lcd(LCD_OUTPUT_MAP); 
....................   #else 
....................    lcd_enable_tris(); 
*
20C2:  BCF    F95.0
....................    lcd_rs_tris(); 
20C4:  BCF    F95.1
....................    lcd_rw_tris(); 
20C6:  BCF    F95.2
....................   #endif 
....................  
....................    lcd_output_rs(0); 
20C8:  BCF    F8C.1
....................    while ( bit_test(lcd_read_byte(),7) ) ; 
20CA:  BRA    207C
20CC:  MOVFF  01,0E
20D0:  BTFSC  01.7
20D2:  BRA    20CA
....................    lcd_output_rs(address); 
20D4:  BCF    F8C.1
20D6:  BTFSC  0C.0
20D8:  BSF    F8C.1
....................    delay_cycles(1); 
20DA:  NOP   
....................    lcd_output_rw(0); 
20DC:  BCF    F8C.2
....................    delay_cycles(1); 
20DE:  NOP   
....................    lcd_output_enable(0); 
20E0:  BCF    F8C.0
....................    lcd_send_nibble(n >> 4); 
20E2:  SWAPF  0D,W
20E4:  MOVWF  0E
20E6:  MOVLW  0F
20E8:  ANDWF  0E,F
20EA:  MOVFF  0E,0F
20EE:  RCALL  2050
....................    lcd_send_nibble(n & 0xf); 
20F0:  MOVF   0D,W
20F2:  ANDLW  0F
20F4:  MOVWF  0E
20F6:  MOVWF  0F
20F8:  RCALL  2050
.................... } 
20FA:  RETURN 0
....................  
.................... #if defined(LCD_EXTENDED_NEWLINE) 
.................... unsigned int8 g_LcdX, g_LcdY; 
.................... #endif 
....................  
.................... void lcd_init(void)  
.................... { 
....................    BYTE i; 
....................  
....................  #if defined(__PCB__) 
....................    set_tris_lcd(LCD_OUTPUT_MAP); 
....................  #else 
....................   #if (defined(LCD_DATA4) && defined(LCD_DATA5) && defined(LCD_DATA6) && defined(LCD_DATA7)) 
....................    output_drive(LCD_DATA4); 
....................    output_drive(LCD_DATA5); 
....................    output_drive(LCD_DATA6); 
....................    output_drive(LCD_DATA7); 
....................   #else 
....................    lcdtris.data = 0x0; 
20FC:  MOVLW  0F
20FE:  ANDWF  F95,W
2100:  MOVWF  F95
....................   #endif 
....................    lcd_enable_tris(); 
2102:  BCF    F95.0
....................    lcd_rs_tris(); 
2104:  BCF    F95.1
....................    lcd_rw_tris(); 
2106:  BCF    F95.2
....................  #endif 
....................  
....................    lcd_output_rs(0); 
2108:  BCF    F8C.1
....................    lcd_output_rw(0); 
210A:  BCF    F8C.2
....................    lcd_output_enable(0); 
210C:  BCF    F8C.0
....................      
....................    delay_ms(15); 
210E:  MOVLW  0F
2110:  MOVWF  08
2112:  RCALL  2028
....................    for(i=1;i<=3;++i) 
2114:  MOVLW  01
2116:  MOVWF  05
2118:  MOVF   05,W
211A:  SUBLW  03
211C:  BNC   2132
....................    { 
....................        lcd_send_nibble(3); 
211E:  MOVLW  03
2120:  MOVWF  0F
2122:  RCALL  2050
....................        lcd_send_nibble(0); 
2124:  CLRF   0F
2126:  RCALL  2050
....................        delay_ms(5); 
2128:  MOVLW  05
212A:  MOVWF  08
212C:  RCALL  2028
....................    } 
212E:  INCF   05,F
2130:  BRA    2118
....................     
....................    lcd_send_nibble(2); 
2132:  MOVLW  02
2134:  MOVWF  0F
2136:  RCALL  2050
....................    lcd_send_nibble(0); 
2138:  CLRF   0F
213A:  RCALL  2050
....................    delay_ms(5); 
213C:  MOVLW  05
213E:  MOVWF  08
2140:  RCALL  2028
....................    for(i=0;i<=3;++i) 
2142:  CLRF   05
2144:  MOVF   05,W
2146:  SUBLW  03
2148:  BNC   215C
....................       lcd_send_byte(0,LCD_INIT_STRING[i]); 
214A:  CLRF   03
214C:  MOVF   05,W
214E:  RCALL  2008
2150:  MOVWF  06
2152:  CLRF   0C
2154:  MOVWF  0D
2156:  RCALL  20C2
....................  
....................   #if defined(LCD_EXTENDED_NEWLINE) 
2158:  INCF   05,F
215A:  BRA    2144
....................    g_LcdX = 0; 
....................    g_LcdY = 0; 
....................   #endif 
.................... } 
215C:  GOTO   220C (RETURN)
....................  
.................... void lcd_gotoxy(BYTE x, BYTE y) 
.................... { 
....................    BYTE address; 
....................     
....................    if(y!=1) 
2160:  DECFSZ 09,W
2162:  BRA    2166
2164:  BRA    216C
....................       address=LCD_LINE_TWO; 
2166:  MOVLW  40
2168:  MOVWF  0A
....................    else 
216A:  BRA    216E
....................       address=0; 
216C:  CLRF   0A
....................       
....................    address+=x-1; 
216E:  MOVLW  01
2170:  SUBWF  08,W
2172:  ADDWF  0A,F
....................    lcd_send_byte(0,0x80|address); 
2174:  MOVF   0A,W
2176:  IORLW  80
2178:  MOVWF  0B
217A:  CLRF   0C
217C:  MOVWF  0D
217E:  RCALL  20C2
....................  
....................   #if defined(LCD_EXTENDED_NEWLINE) 
....................    g_LcdX = x - 1; 
....................    g_LcdY = y - 1; 
....................   #endif 
.................... } 
2180:  RETURN 0
....................  
.................... void lcd_putc(char c) 
.................... { 
....................    switch (c) 
....................    { 
2182:  MOVF   07,W
2184:  XORLW  07
2186:  BZ    2196
2188:  XORLW  0B
218A:  BZ    21A0
218C:  XORLW  06
218E:  BZ    21B0
2190:  XORLW  02
2192:  BZ    21BC
2194:  BRA    21C6
....................       case '\a'   :  lcd_gotoxy(1,1);     break; 
2196:  MOVLW  01
2198:  MOVWF  08
219A:  MOVWF  09
219C:  RCALL  2160
219E:  BRA    21D2
....................  
....................       case '\f'   :  lcd_send_byte(0,1); 
21A0:  CLRF   0C
21A2:  MOVLW  01
21A4:  MOVWF  0D
21A6:  RCALL  20C2
....................                      delay_ms(2); 
21A8:  MOVLW  02
21AA:  MOVWF  08
21AC:  RCALL  2028
....................                     #if defined(LCD_EXTENDED_NEWLINE) 
....................                      g_LcdX = 0; 
....................                      g_LcdY = 0; 
....................                     #endif 
....................                      break; 
21AE:  BRA    21D2
....................  
....................      #if defined(LCD_EXTENDED_NEWLINE) 
....................       case '\r'   :  lcd_gotoxy(1, g_LcdY+1);   break; 
....................       case '\n'   : 
....................          while (g_LcdX++ < LCD_LINE_LENGTH) 
....................          { 
....................             lcd_send_byte(1, ' '); 
....................          } 
....................          lcd_gotoxy(1, g_LcdY+2); 
....................          break; 
....................      #else 
....................       case '\n'   : lcd_gotoxy(1,2);        break; 
21B0:  MOVLW  01
21B2:  MOVWF  08
21B4:  MOVLW  02
21B6:  MOVWF  09
21B8:  RCALL  2160
21BA:  BRA    21D2
....................      #endif 
....................       
....................       case '\b'   : lcd_send_byte(0,0x10);  break; 
21BC:  CLRF   0C
21BE:  MOVLW  10
21C0:  MOVWF  0D
21C2:  RCALL  20C2
21C4:  BRA    21D2
....................       
....................      #if defined(LCD_EXTENDED_NEWLINE) 
....................       default     :  
....................          if (g_LcdX < LCD_LINE_LENGTH) 
....................          { 
....................             lcd_send_byte(1, c); 
....................             g_LcdX++; 
....................          } 
....................          break; 
....................      #else 
....................       default     : lcd_send_byte(1,c);     break; 
21C6:  MOVLW  01
21C8:  MOVWF  0C
21CA:  MOVFF  07,0D
21CE:  RCALL  20C2
21D0:  BRA    21D2
....................      #endif 
....................    } 
.................... } 
21D2:  RETURN 0
....................   
.................... char lcd_getc(BYTE x, BYTE y) 
.................... { 
....................    char value; 
....................  
....................    lcd_gotoxy(x,y); 
....................    while ( bit_test(lcd_read_byte(),7) ); // wait until busy flag is low 
....................    lcd_output_rs(1); 
....................    value = lcd_read_byte(); 
....................    lcd_output_rs(0); 
....................     
....................    return(value); 
.................... } 
....................  
....................  
.................... void main() { 
*
21F6:  CLRF   FF8
21F8:  BCF    FD0.7
21FA:  CLRF   FEA
21FC:  CLRF   FE9
21FE:  MOVF   FC1,W
2200:  ANDLW  C0
2202:  IORLW  0F
2204:  MOVWF  FC1
2206:  MOVLW  07
2208:  MOVWF  FB4
....................  
....................    lcd_init(); 
220A:  BRA    20FC
....................    printf(lcd_putc,"\f");  //BORRAMOS PANTALLA 
220C:  MOVLW  0C
220E:  MOVWF  07
2210:  RCALL  2182
....................  
....................    while (1) { 
....................       lcd_gotoxy(1,1); 
2212:  MOVLW  01
2214:  MOVWF  08
2216:  MOVWF  09
2218:  RCALL  2160
....................       printf(lcd_putc,"HOLA MUNDO"); 
221A:  MOVLW  1C
221C:  MOVWF  FF6
221E:  MOVLW  20
2220:  MOVWF  FF7
2222:  BRA    21D4
....................       delay_ms(200); 
2224:  MOVLW  C8
2226:  MOVWF  08
2228:  RCALL  2028
....................     } 
222A:  BRA    2212
....................    } 
....................  
222C:  SLEEP 

Configuration Fuses:
   Word  1: CE24   PLL5 CPUDIV1 USBDIV HSPLL FCMEN IESO
   Word  2: 1E3E   PUT BROWNOUT BORV20 VREGEN NOWDT WDT32768
   Word  3: 8500   CCP2C1 NOPBADEN LPT1OSC MCLR
   Word  4: 00A1   STVREN NOLVP ICSP2 NOXINST NODEBUG
   Word  5: C00F   NOPROTECT NOCPB NOCPD
   Word  6: E00F   NOWRT NOWRTC NOWRTB NOWRTD
   Word  7: 400F   NOEBTR NOEBTRB
